(dp0
(S'0'
p1
S'2'
p2
tp3
(lp4
(lp5
g1
ag2
aas(S'5'
p6
S'8'
p7
tp8
(lp9
(lp10
g6
aV1
p11
aV4
p12
ag7
aa(lp13
g6
aV3
p14
aV7
p15
ag7
aa(lp16
g6
aV2
p17
ag15
ag7
aa(lp18
g6
ag17
aV0
p19
ag7
aas(S'3'
p20
S'9'
p21
tp22
(lp23
(lp24
g20
ag21
aas(S'6'
p25
S'7'
p26
tp27
(lp28
(lp29
g25
ag19
aV8
p30
ag26
aa(lp31
g25
ag19
ag17
ag26
aa(lp32
g25
aV9
p33
ag14
ag26
aas(S'1'
p34
g25
tp35
(lp36
(lp37
g34
ag25
aas(g1
g26
tp38
(lp39
(lp40
g1
ag30
ag26
aa(lp41
g1
ag17
ag26
aas(g2
g26
tp42
(lp43
(lp44
g2
ag26
aas(g34
g2
tp45
(lp46
(lp47
g34
aV5
p48
ag2
aas(g20
S'4'
p49
tp50
(lp51
(lp52
g20
ag33
ag49
aas(g26
g21
tp53
(lp54
(lp55
g26
ag14
ag21
aas(g1
g20
tp56
(lp57
(lp58
g1
ag30
ag15
ag20
aa(lp59
g1
ag17
ag15
ag20
aa(lp60
g1
ag17
ag48
ag20
aa(lp61
g1
aV6
p62
ag33
ag20
aas(g2
g20
tp63
(lp64
(lp65
g2
ag48
ag20
aa(lp66
g2
ag15
ag20
aas(g20
g7
tp67
(lp68
(lp69
g20
ag15
ag7
aas(g25
g21
tp70
(lp71
(lp72
g25
ag21
aas(g7
g21
tp73
(lp74
(lp75
g7
ag12
ag21
aas(g1
g49
tp76
(lp77
(lp78
g1
ag30
ag49
aas(g2
g7
tp79
(lp80
(lp81
g2
ag19
ag7
aa(lp82
g2
ag15
ag7
aas(g34
g6
tp83
(lp84
(lp85
g34
ag6
aas(g2
g49
tp86
(lp87
(lp88
g2
ag19
ag30
ag49
aa(lp89
g2
ag15
ag30
ag49
aa(lp90
g2
ag48
ag11
ag49
aas(g20
g26
tp91
(lp92
(lp93
g20
ag26
aas(g6
g26
tp94
(lp95
(lp96
g6
ag14
ag26
aa(lp97
g6
ag17
ag26
aas(g49
g25
tp98
(lp99
(lp100
g49
ag11
ag25
aa(lp101
g49
ag33
ag25
aas(g49
g6
tp102
(lp103
(lp104
g49
ag11
ag6
aas(g1
g6
tp105
(lp106
(lp107
g1
ag17
ag6
aas(g2
g21
tp108
(lp109
(lp110
g2
ag19
ag62
ag21
aa(lp111
g2
ag48
ag14
ag21
aa(lp112
g2
ag15
ag14
ag21
aas(g34
g49
tp113
(lp114
(lp115
g34
ag49
aas(g1
g7
tp116
(lp117
(lp118
g1
ag7
aas(g1
g34
tp119
(lp120
(lp121
g1
ag62
ag34
aas(g34
g21
tp122
(lp123
(lp124
g34
ag12
ag21
aa(lp125
g34
ag62
ag21
aas(g2
g6
tp126
(lp127
(lp128
g2
ag6
aas(g20
g25
tp129
(lp130
(lp131
g20
ag33
ag25
aas(g49
g7
tp132
(lp133
(lp134
g49
ag7
aas(g6
g25
tp135
(lp136
(lp137
g6
ag11
ag25
aas(g6
g21
tp138
(lp139
(lp140
g6
ag14
ag21
aas(g49
g26
tp141
(lp142
(lp143
g49
ag30
ag26
aas(g26
g7
tp144
(lp145
(lp146
g26
ag7
aas(g20
g6
tp147
(lp148
(lp149
g20
ag6
aas(g34
g26
tp150
(lp151
(lp152
g34
ag48
ag14
ag26
aa(lp153
g34
ag48
ag17
ag26
aa(lp154
g34
ag12
ag30
ag26
aas(g1
g21
tp155
(lp156
(lp157
g1
ag62
ag21
aas(g1
g25
tp158
(lp159
(lp160
g1
ag25
aas(g34
g7
tp161
(lp162
(lp163
g34
ag12
ag7
aas(g2
g25
tp164
(lp165
(lp166
g2
ag19
ag25
aas(g25
g7
tp167
(lp168
(lp169
g25
ag19
ag7
aas(g34
g20
tp170
(lp171
(lp172
g34
ag48
ag20
aas(g49
g21
tp173
(lp174
(lp175
g49
ag21
aas.