(dp0
(S'0'
p1
S'2'
p2
tp3
(lp4
(lp5
g1
aV2
p6
aa(lp7
g1
aV8
p8
aV7
p9
ag2
aa(lp10
g1
aV6
p11
aV1
p12
aV5
p13
ag2
aa(lp14
g1
ag8
aV4
p15
ag12
ag13
ag2
aa(lp16
g1
ag8
ag9
aV3
p17
ag13
ag2
aa(lp18
g1
ag11
aV9
p19
ag17
ag13
ag2
aa(lp20
g1
ag11
ag19
ag17
ag9
ag6
aa(lp21
g1
ag11
ag12
ag15
ag8
ag9
ag2
aas(S'5'
p22
S'8'
p23
tp24
(lp25
(lp26
g22
ag12
ag15
ag23
aa(lp27
g22
ag17
ag9
ag23
aa(lp28
g22
ag6
aV0
p29
ag23
aa(lp30
g22
ag6
ag9
ag8
aa(lp31
g22
ag12
ag11
ag29
ag23
aa(lp32
g22
ag17
ag19
ag15
ag23
aa(lp33
g22
ag17
ag9
ag6
ag29
ag8
aa(lp34
g22
ag12
ag11
ag19
ag15
ag23
aas(S'3'
p35
S'9'
p36
tp37
(lp38
(lp39
g35
ag19
aa(lp40
g35
ag13
ag12
ag15
ag36
aa(lp41
g35
ag9
ag8
ag15
ag36
aa(lp42
g35
ag13
ag12
ag11
ag19
aa(lp43
g35
ag13
ag6
ag29
ag11
ag36
aa(lp44
g35
ag9
ag6
ag29
ag11
ag36
aa(lp45
g35
ag9
ag8
ag29
ag11
ag36
aa(lp46
g35
ag9
ag8
ag15
ag12
ag11
ag36
aas(S'6'
p47
S'7'
p48
tp49
(lp50
(lp51
g47
ag29
ag8
ag48
aa(lp52
g47
ag19
ag17
ag48
aa(lp53
g47
ag29
ag6
ag9
aa(lp54
g47
ag12
ag13
ag17
ag48
aa(lp55
g47
ag19
ag15
ag8
ag48
aa(lp56
g47
ag12
ag15
ag8
ag48
aa(lp57
g47
ag12
ag13
ag6
ag9
aa(lp58
g47
ag19
ag17
ag13
ag6
ag48
aas(S'1'
p59
g47
tp60
(lp61
(lp62
g59
ag11
aa(lp63
g59
ag15
ag19
ag47
aa(lp64
g59
ag13
ag17
ag19
ag47
aa(lp65
g59
ag15
ag8
ag29
ag47
aa(lp66
g59
ag13
ag6
ag29
ag47
aa(lp67
g59
ag13
ag17
ag9
ag8
ag29
ag47
aa(lp68
g59
ag15
ag8
ag9
ag17
ag19
ag47
aa(lp69
g59
ag13
ag6
ag9
ag8
ag29
ag47
aas(g1
g48
tp70
(lp71
(lp72
g1
ag8
ag48
aa(lp73
g1
ag6
ag48
aa(lp74
g1
ag11
ag19
ag17
ag48
aa(lp75
g1
ag6
ag13
ag17
ag48
aa(lp76
g1
ag8
ag15
ag19
ag17
ag48
aa(lp77
g1
ag11
ag12
ag13
ag17
ag48
aa(lp78
g1
ag11
ag19
ag15
ag8
ag48
aa(lp79
g1
ag11
ag12
ag15
ag8
ag48
aas(g2
g48
tp80
(lp81
(lp82
g2
ag9
aa(lp83
g2
ag29
ag8
ag48
aa(lp84
g2
ag13
ag17
ag48
aa(lp85
g2
ag29
ag11
ag19
ag17
ag48
aa(lp86
g2
ag13
ag12
ag15
ag8
ag48
aa(lp87
g2
ag29
ag8
ag15
ag19
ag17
ag48
aa(lp88
g2
ag13
ag17
ag19
ag15
ag8
ag48
aa(lp89
g2
ag29
ag11
ag12
ag13
ag17
ag48
aas(g59
g2
tp90
(lp91
(lp92
g59
ag13
ag2
aa(lp93
g59
ag11
ag29
ag2
aa(lp94
g59
ag13
ag17
ag9
ag2
aa(lp95
g59
ag15
ag8
ag29
ag2
aa(lp96
g59
ag15
ag8
ag9
ag6
aa(lp97
g59
ag11
ag19
ag17
ag13
ag2
aa(lp98
g59
ag11
ag29
ag8
ag9
ag2
aa(lp99
g59
ag15
ag19
ag17
ag13
ag2
aas(g35
S'4'
p100
tp101
(lp102
(lp103
g35
ag19
ag100
aa(lp104
g35
ag13
ag12
ag100
aa(lp105
g35
ag9
ag8
ag100
aa(lp106
g35
ag19
ag11
ag12
ag100
aa(lp107
g35
ag13
ag6
ag29
ag8
ag100
aa(lp108
g35
ag13
ag12
ag11
ag19
ag100
aa(lp109
g35
ag9
ag6
ag29
ag8
ag100
aa(lp110
g35
ag19
ag11
ag29
ag8
ag100
aas(g48
g36
tp111
(lp112
(lp113
g48
ag17
ag36
aa(lp114
g48
ag8
ag15
ag36
aa(lp115
g48
ag6
ag29
ag11
ag36
aa(lp116
g48
ag8
ag29
ag11
ag36
aa(lp117
g48
ag6
ag13
ag17
ag36
aa(lp118
g48
ag17
ag13
ag12
ag15
ag36
aa(lp119
g48
ag8
ag15
ag12
ag11
ag36
aa(lp120
g48
ag6
ag29
ag8
ag15
ag19
aas(g1
g35
tp121
(lp122
(lp123
g1
ag8
ag9
ag35
aa(lp124
g1
ag6
ag13
ag35
aa(lp125
g1
ag11
ag19
ag35
aa(lp126
g1
ag6
ag9
ag17
aa(lp127
g1
ag8
ag15
ag19
ag35
aa(lp128
g1
ag11
ag12
ag13
ag35
aa(lp129
g1
ag8
ag9
ag6
ag13
ag17
aa(lp130
g1
ag8
ag15
ag12
ag13
ag35
aas(g2
g35
tp131
(lp132
(lp133
g2
ag13
ag35
aa(lp134
g2
ag9
ag35
aa(lp135
g2
ag29
ag8
ag9
ag35
aa(lp136
g2
ag29
ag11
ag19
ag35
aa(lp137
g2
ag13
ag12
ag15
ag19
ag35
aa(lp138
g2
ag9
ag8
ag15
ag19
ag35
aa(lp139
g2
ag29
ag8
ag15
ag19
ag35
aa(lp140
g2
ag29
ag11
ag12
ag13
ag35
aas(g35
g23
tp141
(lp142
(lp143
g35
ag9
ag23
aa(lp144
g35
ag19
ag15
ag23
aa(lp145
g35
ag9
ag6
ag29
ag23
aa(lp146
g35
ag13
ag12
ag15
ag23
aa(lp147
g35
ag19
ag11
ag29
ag23
aa(lp148
g35
ag13
ag6
ag29
ag23
aa(lp149
g35
ag13
ag6
ag9
ag8
aa(lp150
g35
ag13
ag12
ag11
ag29
ag23
aas(g47
g36
tp151
(lp152
(lp153
g47
ag19
aa(lp154
g47
ag12
ag15
ag36
aa(lp155
g47
ag29
ag8
ag15
ag36
aa(lp156
g47
ag12
ag13
ag17
ag36
aa(lp157
g47
ag29
ag6
ag13
ag17
ag36
aa(lp158
g47
ag29
ag8
ag9
ag17
ag36
aa(lp159
g47
ag29
ag6
ag9
ag17
ag36
aa(lp160
g47
ag12
ag15
ag8
ag9
ag17
ag36
aas(g23
g36
tp161
(lp162
(lp163
g23
ag15
ag36
aa(lp164
g23
ag29
ag11
ag36
aa(lp165
g23
ag9
ag17
ag36
aa(lp166
g23
ag15
ag12
ag11
ag36
aa(lp167
g23
ag29
ag6
ag13
ag17
ag36
aa(lp168
g23
ag29
ag11
ag12
ag15
ag36
aa(lp169
g23
ag9
ag6
ag29
ag11
ag36
aa(lp170
g23
ag15
ag12
ag13
ag17
ag36
aas(g1
g100
tp171
(lp172
(lp173
g1
ag8
ag100
aa(lp174
g1
ag11
ag12
ag100
aa(lp175
g1
ag11
ag19
ag15
aa(lp176
g1
ag6
ag13
ag12
ag100
aa(lp177
g1
ag6
ag9
ag8
ag100
aa(lp178
g1
ag8
ag9
ag17
ag19
ag100
aa(lp179
g1
ag6
ag13
ag17
ag19
ag100
aa(lp180
g1
ag6
ag9
ag17
ag19
ag100
aas(g2
g23
tp181
(lp182
(lp183
g2
ag29
ag23
aa(lp184
g2
ag9
ag23
aa(lp185
g2
ag13
ag12
ag15
ag23
aa(lp186
g2
ag13
ag17
ag9
ag23
aa(lp187
g2
ag29
ag11
ag12
ag15
ag23
aa(lp188
g2
ag9
ag17
ag19
ag15
ag23
aa(lp189
g2
ag13
ag12
ag11
ag29
ag23
aa(lp190
g2
ag13
ag17
ag19
ag15
ag23
aas(g59
g22
tp191
(lp192
(lp193
g59
ag13
aa(lp194
g59
ag15
ag19
ag17
ag22
aa(lp195
g59
ag11
ag29
ag6
ag22
aa(lp196
g59
ag11
ag19
ag17
ag22
aa(lp197
g59
ag15
ag8
ag29
ag6
ag22
aa(lp198
g59
ag15
ag8
ag9
ag17
ag22
aa(lp199
g59
ag15
ag8
ag9
ag6
ag13
aa(lp200
g59
ag15
ag19
ag11
ag29
ag6
ag22
aas(g2
g100
tp201
(lp202
(lp203
g2
ag29
ag8
ag100
aa(lp204
g2
ag13
ag12
ag100
aa(lp205
g2
ag9
ag8
ag100
aa(lp206
g2
ag29
ag11
ag12
ag100
aa(lp207
g2
ag13
ag17
ag19
ag100
aa(lp208
g2
ag9
ag17
ag19
ag100
aa(lp209
g2
ag29
ag11
ag19
ag15
aa(lp210
g2
ag13
ag12
ag11
ag19
ag100
aas(g35
g48
tp211
(lp212
(lp213
g35
ag9
aa(lp214
g35
ag13
ag6
ag48
aa(lp215
g35
ag19
ag15
ag8
ag48
aa(lp216
g35
ag13
ag12
ag15
ag8
ag48
aa(lp217
g35
ag13
ag6
ag29
ag8
ag48
aa(lp218
g35
ag19
ag11
ag29
ag8
ag48
aa(lp219
g35
ag19
ag11
ag29
ag6
ag9
aa(lp220
g35
ag19
ag15
ag12
ag13
ag6
ag48
aas(g22
g48
tp221
(lp222
(lp223
g22
ag17
ag48
aa(lp224
g22
ag6
ag48
aa(lp225
g22
ag12
ag15
ag8
ag48
aa(lp226
g22
ag6
ag29
ag8
ag48
aa(lp227
g22
ag17
ag19
ag15
ag8
ag48
aa(lp228
g22
ag12
ag11
ag29
ag8
ag48
aa(lp229
g22
ag12
ag15
ag19
ag17
ag48
aa(lp230
g22
ag12
ag11
ag19
ag17
ag48
aas(g100
g47
tp231
(lp232
(lp233
g100
ag12
ag47
aa(lp234
g100
ag19
ag47
aa(lp235
g100
ag8
ag29
ag47
aa(lp236
g100
ag12
ag13
ag17
ag19
ag47
aa(lp237
g100
ag19
ag17
ag13
ag12
ag47
aa(lp238
g100
ag8
ag9
ag17
ag19
ag47
aa(lp239
g100
ag12
ag13
ag6
ag29
ag47
aa(lp240
g100
ag8
ag9
ag6
ag29
ag47
aas(g100
g22
tp241
(lp242
(lp243
g100
ag12
ag22
aa(lp244
g100
ag19
ag17
ag22
aa(lp245
g100
ag8
ag29
ag6
ag22
aa(lp246
g100
ag19
ag11
ag12
ag22
aa(lp247
g100
ag8
ag9
ag17
ag22
aa(lp248
g100
ag8
ag9
ag6
ag13
aa(lp249
g100
ag12
ag11
ag29
ag6
ag22
aa(lp250
g100
ag19
ag17
ag9
ag6
ag22
aas(g1
g22
tp251
(lp252
(lp253
g1
ag6
ag22
aa(lp254
g1
ag11
ag12
ag22
aa(lp255
g1
ag6
ag9
ag17
ag22
aa(lp256
g1
ag8
ag15
ag12
ag22
aa(lp257
g1
ag11
ag19
ag17
ag22
aa(lp258
g1
ag8
ag9
ag17
ag22
aa(lp259
g1
ag8
ag9
ag6
ag13
aa(lp260
g1
ag8
ag15
ag19
ag17
ag22
aas(g2
g36
tp261
(lp262
(lp263
g2
ag29
ag11
ag36
aa(lp264
g2
ag13
ag17
ag36
aa(lp265
g2
ag9
ag17
ag36
aa(lp266
g2
ag29
ag8
ag15
ag36
aa(lp267
g2
ag13
ag12
ag15
ag36
aa(lp268
g2
ag9
ag8
ag15
ag36
aa(lp269
g2
ag13
ag12
ag11
ag19
aa(lp270
g2
ag29
ag11
ag12
ag15
ag36
aas(g59
g100
tp271
(lp272
(lp273
g59
ag15
aa(lp274
g59
ag11
ag19
ag100
aa(lp275
g59
ag13
ag17
ag19
ag100
aa(lp276
g59
ag11
ag29
ag8
ag100
aa(lp277
g59
ag13
ag6
ag29
ag8
ag100
aa(lp278
g59
ag13
ag17
ag9
ag8
ag100
aa(lp279
g59
ag13
ag6
ag9
ag8
ag100
aa(lp280
g59
ag11
ag19
ag17
ag9
ag8
ag100
aas(g1
g23
tp281
(lp282
(lp283
g1
ag8
aa(lp284
g1
ag6
ag9
ag23
aa(lp285
g1
ag11
ag12
ag15
ag23
aa(lp286
g1
ag11
ag19
ag15
ag23
aa(lp287
g1
ag6
ag13
ag12
ag15
ag23
aa(lp288
g1
ag11
ag19
ag17
ag9
ag23
aa(lp289
g1
ag6
ag13
ag17
ag9
ag23
aa(lp290
g1
ag6
ag9
ag17
ag19
ag15
ag23
aas(g1
g59
tp291
(lp292
(lp293
g1
ag11
ag59
aa(lp294
g1
ag8
ag15
ag59
aa(lp295
g1
ag6
ag13
ag59
aa(lp296
g1
ag11
ag19
ag15
ag59
aa(lp297
g1
ag8
ag9
ag17
ag13
ag59
aa(lp298
g1
ag8
ag15
ag19
ag11
ag59
aa(lp299
g1
ag6
ag9
ag8
ag15
ag59
aa(lp300
g1
ag11
ag19
ag17
ag13
ag59
aas(g59
g36
tp301
(lp302
(lp303
g59
ag15
ag36
aa(lp304
g59
ag11
ag36
aa(lp305
g59
ag13
ag17
ag36
aa(lp306
g59
ag15
ag8
ag29
ag11
ag36
aa(lp307
g59
ag11
ag29
ag8
ag15
ag36
aa(lp308
g59
ag13
ag6
ag29
ag11
ag36
aa(lp309
g59
ag15
ag8
ag9
ag17
ag36
aa(lp310
g59
ag13
ag6
ag9
ag17
ag36
aas(g2
g22
tp311
(lp312
(lp313
g2
ag13
aa(lp314
g2
ag9
ag17
ag22
aa(lp315
g2
ag29
ag11
ag12
ag22
aa(lp316
g2
ag9
ag8
ag15
ag12
ag22
aa(lp317
g2
ag29
ag8
ag15
ag12
ag22
aa(lp318
g2
ag29
ag11
ag19
ag17
ag22
aa(lp319
g2
ag29
ag8
ag9
ag17
ag13
aa(lp320
g2
ag9
ag17
ag19
ag15
ag12
ag22
aas(g35
g47
tp321
(lp322
(lp323
g35
ag19
ag47
aa(lp324
g35
ag13
ag12
ag47
aa(lp325
g35
ag19
ag15
ag12
ag47
aa(lp326
g35
ag9
ag8
ag29
ag47
aa(lp327
g35
ag13
ag6
ag29
ag47
aa(lp328
g35
ag9
ag6
ag29
ag47
aa(lp329
g35
ag13
ag12
ag15
ag19
ag47
aa(lp330
g35
ag19
ag15
ag8
ag29
ag47
aas(g100
g23
tp331
(lp332
(lp333
g100
ag8
aa(lp334
g100
ag12
ag11
ag29
ag23
aa(lp335
g100
ag19
ag17
ag9
ag23
aa(lp336
g100
ag19
ag11
ag29
ag23
aa(lp337
g100
ag12
ag13
ag17
ag9
ag23
aa(lp338
g100
ag12
ag13
ag6
ag29
ag23
aa(lp339
g100
ag12
ag13
ag6
ag9
ag8
aa(lp340
g100
ag12
ag11
ag19
ag17
ag9
ag23
aas(g22
g47
tp341
(lp342
(lp343
g22
ag12
ag47
aa(lp344
g22
ag17
ag19
ag47
aa(lp345
g22
ag6
ag29
ag47
aa(lp346
g22
ag12
ag15
ag19
ag47
aa(lp347
g22
ag17
ag9
ag8
ag29
ag47
aa(lp348
g22
ag17
ag19
ag15
ag12
ag47
aa(lp349
g22
ag6
ag9
ag8
ag29
ag47
aa(lp350
g22
ag12
ag15
ag8
ag29
ag47
aas(g22
g36
tp351
(lp352
(lp353
g22
ag17
ag36
aa(lp354
g22
ag12
ag15
ag36
aa(lp355
g22
ag12
ag11
ag19
aa(lp356
g22
ag6
ag29
ag11
ag36
aa(lp357
g22
ag6
ag9
ag17
ag36
aa(lp358
g22
ag17
ag9
ag8
ag15
ag36
aa(lp359
g22
ag6
ag29
ag8
ag15
ag36
aa(lp360
g22
ag6
ag9
ag8
ag15
ag36
aas(g100
g48
tp361
(lp362
(lp363
g100
ag8
ag48
aa(lp364
g100
ag19
ag17
ag48
aa(lp365
g100
ag8
ag29
ag6
ag48
aa(lp366
g100
ag12
ag13
ag17
ag48
aa(lp367
g100
ag12
ag13
ag6
ag9
aa(lp368
g100
ag19
ag11
ag29
ag8
ag48
aa(lp369
g100
ag19
ag17
ag13
ag6
ag48
aa(lp370
g100
ag12
ag11
ag29
ag8
ag48
aas(g48
g23
tp371
(lp372
(lp373
g48
ag8
aa(lp374
g48
ag6
ag29
ag23
aa(lp375
g48
ag17
ag19
ag15
ag23
aa(lp376
g48
ag6
ag13
ag12
ag15
ag23
aa(lp377
g48
ag17
ag13
ag12
ag15
ag23
aa(lp378
g48
ag17
ag19
ag11
ag29
ag23
aa(lp379
g48
ag17
ag13
ag6
ag29
ag8
aa(lp380
g48
ag6
ag29
ag11
ag12
ag15
ag23
aas(g35
g22
tp381
(lp382
(lp383
g35
ag13
aa(lp384
g35
ag9
ag6
ag22
aa(lp385
g35
ag19
ag15
ag12
ag22
aa(lp386
g35
ag19
ag11
ag12
ag22
aa(lp387
g35
ag9
ag8
ag29
ag6
ag22
aa(lp388
g35
ag19
ag11
ag29
ag6
ag22
aa(lp389
g35
ag9
ag8
ag15
ag12
ag22
aa(lp390
g35
ag9
ag6
ag29
ag11
ag12
ag22
aas(g59
g48
tp391
(lp392
(lp393
g59
ag13
ag17
ag48
aa(lp394
g59
ag15
ag8
ag48
aa(lp395
g59
ag13
ag6
ag9
aa(lp396
g59
ag11
ag29
ag8
ag48
aa(lp397
g59
ag15
ag19
ag17
ag48
aa(lp398
g59
ag11
ag19
ag17
ag48
aa(lp399
g59
ag11
ag29
ag6
ag9
aa(lp400
g59
ag15
ag8
ag29
ag6
ag48
aas(g1
g36
tp401
(lp402
(lp403
g1
ag11
ag36
aa(lp404
g1
ag8
ag15
ag36
aa(lp405
g1
ag11
ag12
ag15
ag36
aa(lp406
g1
ag6
ag13
ag17
ag36
aa(lp407
g1
ag8
ag9
ag17
ag36
aa(lp408
g1
ag6
ag9
ag17
ag36
aa(lp409
g1
ag8
ag15
ag12
ag11
ag36
aa(lp410
g1
ag11
ag12
ag13
ag17
ag36
aas(g1
g47
tp411
(lp412
(lp413
g1
ag11
aa(lp414
g1
ag6
ag13
ag12
ag47
aa(lp415
g1
ag8
ag15
ag12
ag47
aa(lp416
g1
ag8
ag15
ag19
ag11
aa(lp417
g1
ag6
ag9
ag17
ag19
ag47
aa(lp418
g1
ag6
ag13
ag17
ag19
ag47
aa(lp419
g1
ag8
ag9
ag17
ag19
ag47
aa(lp420
g1
ag6
ag13
ag12
ag15
ag19
ag47
aas(g59
g23
tp421
(lp422
(lp423
g59
ag15
ag23
aa(lp424
g59
ag11
ag29
ag23
aa(lp425
g59
ag13
ag17
ag9
ag23
aa(lp426
g59
ag11
ag19
ag15
ag23
aa(lp427
g59
ag13
ag6
ag29
ag23
aa(lp428
g59
ag13
ag6
ag9
ag8
aa(lp429
g59
ag15
ag19
ag17
ag9
ag23
aa(lp430
g59
ag11
ag29
ag6
ag9
ag23
aas(g2
g47
tp431
(lp432
(lp433
g2
ag29
ag47
aa(lp434
g2
ag13
ag12
ag47
aa(lp435
g2
ag9
ag8
ag29
ag47
aa(lp436
g2
ag13
ag17
ag19
ag47
aa(lp437
g2
ag9
ag17
ag19
ag47
aa(lp438
g2
ag29
ag8
ag15
ag12
ag47
aa(lp439
g2
ag13
ag12
ag15
ag19
ag47
aa(lp440
g2
ag9
ag8
ag15
ag12
ag47
aas(g47
g23
tp441
(lp442
(lp443
g47
ag29
ag23
aa(lp444
g47
ag12
ag15
ag23
aa(lp445
g47
ag19
ag15
ag23
aa(lp446
g47
ag29
ag6
ag9
ag23
aa(lp447
g47
ag19
ag17
ag9
ag23
aa(lp448
g47
ag12
ag13
ag17
ag9
ag23
aa(lp449
g47
ag12
ag13
ag6
ag29
ag23
aa(lp450
g47
ag12
ag13
ag6
ag9
ag8
aas(g59
g35
tp451
(lp452
(lp453
g59
ag13
ag35
aa(lp454
g59
ag15
ag19
ag35
aa(lp455
g59
ag11
ag19
ag35
aa(lp456
g59
ag13
ag6
ag9
ag35
aa(lp457
g59
ag15
ag8
ag9
ag35
aa(lp458
g59
ag11
ag29
ag8
ag9
ag35
aa(lp459
g59
ag11
ag29
ag6
ag13
ag35
aa(lp460
g59
ag11
ag29
ag6
ag9
ag17
aas(g100
g36
tp461
(lp462
(lp463
g100
ag19
aa(lp464
g100
ag12
ag11
ag36
aa(lp465
g100
ag8
ag29
ag11
ag36
aa(lp466
g100
ag12
ag13
ag17
ag36
aa(lp467
g100
ag8
ag9
ag17
ag36
aa(lp468
g100
ag8
ag29
ag6
ag13
ag17
ag36
aa(lp469
g100
ag12
ag13
ag6
ag29
ag11
ag36
aa(lp470
g100
ag8
ag9
ag6
ag29
ag11
ag36
aas.